target datalayout = "e-m:e-p270:32:32-p271:32:32-p272:64:64-i64:64-i128:128-f80:128-n8:16:32:64-S128"
target triple = "x86_64-pc-linux-gnu"

%struct.tr2_tgt = type { ptr, ptr, ptr, ptr, ptr, ptr, ptr, ptr, ptr, ptr, ptr, ptr, ptr, ptr, ptr, ptr, ptr, ptr, ptr, ptr, ptr, ptr, ptr, ptr, ptr, ptr, ptr, ptr, ptr, ptr }

@trace2_enabled = internal global i32 0, align 4
@tr2_tgt_builtins = internal global [4 x ptr] [ptr @tr2_tgt_normal, ptr @tr2_tgt_perf, ptr @tr2_tgt_event, ptr null], align 16

; Function Attrs: nounwind uwtable
define dso_local void @trace2_cmd_alias_fl(ptr noundef %0, i32 noundef %1, ptr noundef %2, ptr noundef %3) #0 {
  %5 = alloca ptr, align 8
  %6 = alloca i32, align 4
  %7 = alloca ptr, align 8
  %8 = alloca ptr, align 8
  %9 = alloca ptr, align 8
  %10 = alloca i32, align 4
  %11 = alloca i32, align 4
  store ptr %0, ptr %5, align 8, !tbaa !4
  store i32 %1, ptr %6, align 4, !tbaa !9
  store ptr %2, ptr %7, align 8, !tbaa !4
  store ptr %3, ptr %8, align 8, !tbaa !27
  call void @llvm.lifetime.start.p0(i64 8, ptr %9) #9
  call void @llvm.lifetime.start.p0(i64 4, ptr %10) #9
  %12 = load i32, ptr @trace2_enabled, align 4, !tbaa !9
  %13 = icmp ne i32 %12, 0
  br i1 %13, label %15, label %14

14:                                               ; preds = %4
  store i32 1, ptr %11, align 4
  br label %52

15:                                               ; preds = %4
  store i32 0, ptr %10, align 4, !tbaa !9
  %16 = load i32, ptr %10, align 4, !tbaa !9
  %17 = sext i32 %16 to i64
  %18 = getelementptr inbounds [4 x ptr], ptr @tr2_tgt_builtins, i64 0, i64 %17
  %19 = load ptr, ptr %18, align 8, !tbaa !11
  store ptr %19, ptr %9, align 8, !tbaa !11
  br label %20

20:                                               ; preds = %44, %15
  %21 = load ptr, ptr %9, align 8, !tbaa !11
  %22 = icmp ne ptr %21, null
  br i1 %22, label %23, label %51

23:                                               ; preds = %20
  %24 = load ptr, ptr %9, align 8, !tbaa !11
  %25 = getelementptr inbounds nuw %struct.tr2_tgt, ptr %24, i32 0, i32 0
  %26 = load ptr, ptr %25, align 8, !tbaa !13
  %27 = call i32 @tr2_dst_trace_want(ptr noundef %26)
  %28 = icmp ne i32 %27, 0
  br i1 %28, label %29, label %43

29:                                               ; preds = %23
  %30 = load ptr, ptr %9, align 8, !tbaa !11
  %31 = getelementptr inbounds nuw %struct.tr2_tgt, ptr %30, i32 0, i32 13
  %32 = load ptr, ptr %31, align 8, !tbaa !50
  %33 = icmp ne ptr %32, null
  br i1 %33, label %34, label %42

34:                                               ; preds = %29
  %35 = load ptr, ptr %9, align 8, !tbaa !11
  %36 = getelementptr inbounds nuw %struct.tr2_tgt, ptr %35, i32 0, i32 13
  %37 = load ptr, ptr %36, align 8, !tbaa !50
  %38 = load ptr, ptr %5, align 8, !tbaa !4
  %39 = load i32, ptr %6, align 4, !tbaa !9
  %40 = load ptr, ptr %7, align 8, !tbaa !4
  %41 = load ptr, ptr %8, align 8, !tbaa !27
  call void %37(ptr noundef %38, i32 noundef %39, ptr noundef %40, ptr noundef %41)
  br label %42

42:                                               ; preds = %34, %29
  br label %43

43:                                               ; preds = %42, %23
  br label %44

44:                                               ; preds = %43
  %45 = load i32, ptr %10, align 4, !tbaa !9
  %46 = add nsw i32 %45, 1
  store i32 %46, ptr %10, align 4, !tbaa !9
  %47 = load i32, ptr %10, align 4, !tbaa !9
  %48 = sext i32 %47 to i64
  %49 = getelementptr inbounds [4 x ptr], ptr @tr2_tgt_builtins, i64 0, i64 %48
  %50 = load ptr, ptr %49, align 8, !tbaa !11
  store ptr %50, ptr %9, align 8, !tbaa !11
  br label %20, !llvm.loop !51

51:                                               ; preds = %20
  store i32 0, ptr %11, align 4
  br label %52

52:                                               ; preds = %51, %14
  call void @llvm.lifetime.end.p0(i64 4, ptr %10) #9
  call void @llvm.lifetime.end.p0(i64 8, ptr %9) #9
  %53 = load i32, ptr %11, align 4
  switch i32 %53, label %55 [
    i32 0, label %54
    i32 1, label %54
  ]

54:                                               ; preds = %52, %52
  ret void

55:                                               ; preds = %52
  unreachable
}